; Function Attrs: mustprogress nounwind uwtable
define dso_local void @_ZN5clang11DeclContext24makeDeclVisibleInContextEPNS_9NamedDeclE(ptr noundef nonnull align 8 dereferenceable(32) %0, ptr noundef %1) local_unnamed_addr #0 align 2 {
  %3 = tail call noundef ptr @_ZN5clang11DeclContext17getPrimaryContextEv(ptr noundef nonnull align 8 dereferenceable(32) %0)
  %4 = getelementptr inbounds nuw i8, ptr %1, i64 16
  %.0.copyload.i.i.i.i.i.i.i.i.i.i = load i64, ptr %4, align 8
  %5 = and i64 %.0.copyload.i.i.i.i.i.i.i.i.i.i, 4
  %6 = icmp eq i64 %5, 0
  %7 = and i64 %.0.copyload.i.i.i.i.i.i.i.i.i.i, -8
  %8 = inttoptr i64 %7 to ptr
  br i1 %6, label %_ZN5clang4Decl14getDeclContextEv.exit, label %9

9:                                                ; preds = %2
  %10 = load ptr, ptr %8, align 8
  br label %_ZN5clang4Decl14getDeclContextEv.exit

_ZN5clang4Decl14getDeclContextEv.exit:            ; preds = %2, %9
  %.0.i = phi ptr [ %10, %9 ], [ %8, %2 ]
  %11 = tail call noundef ptr @_ZN5clang11DeclContext17getPrimaryContextEv(ptr noundef nonnull align 8 dereferenceable(32) %.0.i)
  %12 = icmp eq ptr %3, %11
  tail call void @_ZN5clang11DeclContext33makeDeclVisibleInContextWithFlagsEPNS_9NamedDeclEbb(ptr noundef nonnull align 8 dereferenceable(32) %3, ptr noundef nonnull %1, i1 noundef zeroext false, i1 noundef zeroext %12)
  ret void
}